; Function Attrs: nounwind uwtable
define internal void @cf_he_destroy(ptr noundef %0, ptr noundef %1) #0 {
  %3 = getelementptr inbounds nuw i8, ptr %0, i64 16
  %4 = load ptr, ptr %3, align 8, !tbaa !105
  %.not = icmp eq ptr %1, null
  br i1 %.not, label %22, label %5

5:                                                ; preds = %2
  %6 = getelementptr inbounds nuw i8, ptr %1, i64 2658
  %7 = load i64, ptr %6, align 2
  %8 = and i64 %7, 2147483648
  %.not15 = icmp eq i64 %8, 0
  br i1 %.not15, label %22, label %9

9:                                                ; preds = %5
  %10 = getelementptr inbounds nuw i8, ptr %1, i64 4864
  %11 = load ptr, ptr %10, align 8, !tbaa !109
  %.not16 = icmp eq ptr %11, null
  br i1 %.not16, label %16, label %12

12:                                               ; preds = %9
  %13 = getelementptr inbounds nuw i8, ptr %11, i64 8
  %14 = load i32, ptr %13, align 8, !tbaa !110
  %15 = icmp sgt i32 %14, 0
  br i1 %15, label %16, label %22

16:                                               ; preds = %9, %12
  %17 = load ptr, ptr %0, align 8, !tbaa !112
  %18 = getelementptr inbounds nuw i8, ptr %17, i64 12
  %19 = load i32, ptr %18, align 4, !tbaa !113
  %20 = icmp sgt i32 %19, 0
  br i1 %20, label %21, label %22

21:                                               ; preds = %16
  tail call void (ptr, ptr, ptr, ...) @Curl_trc_cf_infof(ptr noundef nonnull %1, ptr noundef nonnull %0, ptr noundef nonnull @.str.7) #10
  br label %22

22:                                               ; preds = %21, %16, %12, %5, %2
  %.not17 = icmp eq ptr %4, null
  br i1 %.not17, label %42, label %23

23:                                               ; preds = %22
  %.val = load ptr, ptr %3, align 8, !tbaa !105
  %24 = getelementptr inbounds nuw i8, ptr %.val, i64 32
  br label %25

25:                                               ; preds = %baller_free.exit.i, %23
  %26 = phi i1 [ true, %23 ], [ false, %baller_free.exit.i ]
  %.01.i = phi i64 [ 0, %23 ], [ 1, %baller_free.exit.i ]
  %27 = getelementptr inbounds nuw [2 x ptr], ptr %24, i64 0, i64 %.01.i
  %28 = load ptr, ptr %27, align 8, !tbaa !115
  %.not.i.i = icmp eq ptr %28, null
  br i1 %.not.i.i, label %baller_free.exit.i, label %29

29:                                               ; preds = %25
  %30 = getelementptr inbounds nuw i8, ptr %28, i64 40
  %31 = load ptr, ptr %30, align 8, !tbaa !117
  %.not.i.i.i = icmp eq ptr %31, null
  br i1 %.not.i.i.i, label %baller_close.exit.i.i, label %32

32:                                               ; preds = %29
  tail call void @Curl_conn_cf_discard_chain(ptr noundef nonnull %30, ptr noundef %1) #10
  br label %baller_close.exit.i.i

baller_close.exit.i.i:                            ; preds = %32, %29
  %33 = load ptr, ptr @Curl_cfree, align 8, !tbaa !120
  tail call void %33(ptr noundef nonnull %28) #10
  br label %baller_free.exit.i

baller_free.exit.i:                               ; preds = %baller_close.exit.i.i, %25
  store ptr null, ptr %27, align 8, !tbaa !115
  br i1 %26, label %25, label %34, !llvm.loop !121

34:                                               ; preds = %baller_free.exit.i
  %35 = getelementptr inbounds nuw i8, ptr %.val, i64 48
  %36 = load ptr, ptr %35, align 8, !tbaa !122
  %.not.i10.i = icmp eq ptr %36, null
  br i1 %.not.i10.i, label %cf_he_ctx_clear.exit, label %37

37:                                               ; preds = %34
  %38 = getelementptr inbounds nuw i8, ptr %36, i64 40
  %39 = load ptr, ptr %38, align 8, !tbaa !117
  %.not.i.i11.i = icmp eq ptr %39, null
  br i1 %.not.i.i11.i, label %baller_close.exit.i12.i, label %40

40:                                               ; preds = %37
  tail call void @Curl_conn_cf_discard_chain(ptr noundef nonnull %38, ptr noundef %1) #10
  br label %baller_close.exit.i12.i

baller_close.exit.i12.i:                          ; preds = %40, %37
  %41 = load ptr, ptr @Curl_cfree, align 8, !tbaa !120
  tail call void %41(ptr noundef nonnull %36) #10
  br label %cf_he_ctx_clear.exit

cf_he_ctx_clear.exit:                             ; preds = %34, %baller_close.exit.i12.i
  store ptr null, ptr %35, align 8, !tbaa !122
  br label %42

42:                                               ; preds = %22, %cf_he_ctx_clear.exit
  %43 = load ptr, ptr @Curl_cfree, align 8, !tbaa !120
  tail call void %43(ptr noundef %4) #10
  ret void
}